; Function Attrs: nounwind uwtable
define internal i64 @archive_write_ustar_data(ptr noundef %0, ptr noundef %1, i64 noundef %2) #0 {
  %4 = getelementptr inbounds nuw i8, ptr %0, i64 248
  %5 = load ptr, ptr %4, align 8, !tbaa !17
  %6 = load i64, ptr %5, align 8, !tbaa !33
  %spec.select = tail call i64 @llvm.umin.i64(i64 %2, i64 %6)
  %7 = tail call i32 @__archive_write_output(ptr noundef %0, ptr noundef %1, i64 noundef %spec.select) #11
  %8 = load i64, ptr %5, align 8, !tbaa !33
  %9 = sub i64 %8, %spec.select
  store i64 %9, ptr %5, align 8, !tbaa !33
  %.not = icmp eq i32 %7, 0
  %10 = sext i32 %7 to i64
  %.0 = select i1 %.not, i64 %spec.select, i64 %10
  ret i64 %.0
}